target datalayout = "e-m:e-p270:32:32-p271:32:32-p272:64:64-i64:64-i128:128-f80:128-n8:16:32:64-S128"
target triple = "x86_64-pc-linux-gnu"

; Function Attrs: nounwind uwtable
define dso_local i32 @resrob(double noundef %0, ptr noundef %1, ptr noundef %2, ptr noundef %3, ptr noundef %4) #0 {
  %6 = alloca double, align 8
  %7 = alloca ptr, align 8
  %8 = alloca ptr, align 8
  %9 = alloca ptr, align 8
  %10 = alloca ptr, align 8
  %11 = alloca ptr, align 8
  %12 = alloca ptr, align 8
  %13 = alloca ptr, align 8
  store double %0, ptr %6, align 8, !tbaa !22
  store ptr %1, ptr %7, align 8, !tbaa !8
  store ptr %2, ptr %8, align 8, !tbaa !8
  store ptr %3, ptr %9, align 8, !tbaa !8
  store ptr %4, ptr %10, align 8, !tbaa !4
  call void @llvm.lifetime.start.p0(i64 8, ptr %11) #5
  call void @llvm.lifetime.start.p0(i64 8, ptr %12) #5
  call void @llvm.lifetime.start.p0(i64 8, ptr %13) #5
  %14 = load ptr, ptr %7, align 8, !tbaa !8
  %15 = call ptr @N_VGetArrayPointer(ptr noundef %14)
  store ptr %15, ptr %11, align 8, !tbaa !10
  %16 = load ptr, ptr %8, align 8, !tbaa !8
  %17 = call ptr @N_VGetArrayPointer(ptr noundef %16)
  store ptr %17, ptr %12, align 8, !tbaa !10
  %18 = load ptr, ptr %9, align 8, !tbaa !8
  %19 = call ptr @N_VGetArrayPointer(ptr noundef %18)
  store ptr %19, ptr %13, align 8, !tbaa !10
  %20 = load ptr, ptr %11, align 8, !tbaa !10
  %21 = getelementptr inbounds double, ptr %20, i64 0
  %22 = load double, ptr %21, align 8, !tbaa !22
  %23 = load ptr, ptr %11, align 8, !tbaa !10
  %24 = getelementptr inbounds double, ptr %23, i64 1
  %25 = load double, ptr %24, align 8, !tbaa !22
  %26 = fmul double 1.000000e+04, %25
  %27 = load ptr, ptr %11, align 8, !tbaa !10
  %28 = getelementptr inbounds double, ptr %27, i64 2
  %29 = load double, ptr %28, align 8, !tbaa !22
  %30 = fmul double %26, %29
  %31 = call double @llvm.fmuladd.f64(double -4.000000e-02, double %22, double %30)
  %32 = load ptr, ptr %13, align 8, !tbaa !10
  %33 = getelementptr inbounds double, ptr %32, i64 0
  store double %31, ptr %33, align 8, !tbaa !22
  %34 = load ptr, ptr %13, align 8, !tbaa !10
  %35 = getelementptr inbounds double, ptr %34, i64 0
  %36 = load double, ptr %35, align 8, !tbaa !22
  %37 = fneg double %36
  %38 = load ptr, ptr %11, align 8, !tbaa !10
  %39 = getelementptr inbounds double, ptr %38, i64 1
  %40 = load double, ptr %39, align 8, !tbaa !22
  %41 = fmul double 3.000000e+07, %40
  %42 = load ptr, ptr %11, align 8, !tbaa !10
  %43 = getelementptr inbounds double, ptr %42, i64 1
  %44 = load double, ptr %43, align 8, !tbaa !22
  %45 = fneg double %41
  %46 = call double @llvm.fmuladd.f64(double %45, double %44, double %37)
  %47 = load ptr, ptr %12, align 8, !tbaa !10
  %48 = getelementptr inbounds double, ptr %47, i64 1
  %49 = load double, ptr %48, align 8, !tbaa !22
  %50 = fsub double %46, %49
  %51 = load ptr, ptr %13, align 8, !tbaa !10
  %52 = getelementptr inbounds double, ptr %51, i64 1
  store double %50, ptr %52, align 8, !tbaa !22
  %53 = load ptr, ptr %12, align 8, !tbaa !10
  %54 = getelementptr inbounds double, ptr %53, i64 0
  %55 = load double, ptr %54, align 8, !tbaa !22
  %56 = load ptr, ptr %13, align 8, !tbaa !10
  %57 = getelementptr inbounds double, ptr %56, i64 0
  %58 = load double, ptr %57, align 8, !tbaa !22
  %59 = fsub double %58, %55
  store double %59, ptr %57, align 8, !tbaa !22
  %60 = load ptr, ptr %11, align 8, !tbaa !10
  %61 = getelementptr inbounds double, ptr %60, i64 0
  %62 = load double, ptr %61, align 8, !tbaa !22
  %63 = load ptr, ptr %11, align 8, !tbaa !10
  %64 = getelementptr inbounds double, ptr %63, i64 1
  %65 = load double, ptr %64, align 8, !tbaa !22
  %66 = fadd double %62, %65
  %67 = load ptr, ptr %11, align 8, !tbaa !10
  %68 = getelementptr inbounds double, ptr %67, i64 2
  %69 = load double, ptr %68, align 8, !tbaa !22
  %70 = fadd double %66, %69
  %71 = fsub double %70, 1.000000e+00
  %72 = load ptr, ptr %13, align 8, !tbaa !10
  %73 = getelementptr inbounds double, ptr %72, i64 2
  store double %71, ptr %73, align 8, !tbaa !22
  call void @llvm.lifetime.end.p0(i64 8, ptr %13) #5
  call void @llvm.lifetime.end.p0(i64 8, ptr %12) #5
  call void @llvm.lifetime.end.p0(i64 8, ptr %11) #5
  ret i32 0
}